target datalayout = "e-m:e-p270:32:32-p271:32:32-p272:64:64-i64:64-i128:128-f80:128-n8:16:32:64-S128"
target triple = "x86_64-pc-linux-gnu"

%struct.siphash_data_st = type { ptr, %struct.siphash_st, %struct.siphash_st, i32, i32 }
%struct.siphash_st = type { i64, i64, i64, i64, i64, i32, i32, i32, i32, [8 x i8] }

; Function Attrs: nounwind uwtable
define internal i32 @siphash_update(ptr noundef %0, ptr noundef %1, i64 noundef %2) #0 {
  %4 = alloca i32, align 4
  %5 = alloca ptr, align 8
  %6 = alloca ptr, align 8
  %7 = alloca i64, align 8
  %8 = alloca ptr, align 8
  %9 = alloca i32, align 4
  store ptr %0, ptr %5, align 8, !tbaa !3
  store ptr %1, ptr %6, align 8, !tbaa !18
  store i64 %2, ptr %7, align 8, !tbaa !15
  call void @llvm.lifetime.start.p0(i64 8, ptr %8) #5
  %10 = load ptr, ptr %5, align 8, !tbaa !3
  store ptr %10, ptr %8, align 8, !tbaa !7
  %11 = load i64, ptr %7, align 8, !tbaa !15
  %12 = icmp eq i64 %11, 0
  br i1 %12, label %13, label %14

13:                                               ; preds = %3
  store i32 1, ptr %4, align 4
  store i32 1, ptr %9, align 4
  br label %19

14:                                               ; preds = %3
  %15 = load ptr, ptr %8, align 8, !tbaa !7
  %16 = getelementptr inbounds nuw %struct.siphash_data_st, ptr %15, i32 0, i32 1
  %17 = load ptr, ptr %6, align 8, !tbaa !18
  %18 = load i64, ptr %7, align 8, !tbaa !15
  call void @SipHash_Update(ptr noundef %16, ptr noundef %17, i64 noundef %18)
  store i32 1, ptr %4, align 4
  store i32 1, ptr %9, align 4
  br label %19

19:                                               ; preds = %14, %13
  call void @llvm.lifetime.end.p0(i64 8, ptr %8) #5
  %20 = load i32, ptr %4, align 4
  ret i32 %20
}