; Function Attrs: nounwind uwtable
define internal noundef i32 @siphash_update(ptr noundef %0, ptr noundef %1, i64 noundef %2) #0 {
  %4 = icmp eq i64 %2, 0
  br i1 %4, label %7, label %5

5:                                                ; preds = %3
  %6 = getelementptr inbounds nuw i8, ptr %0, i64 8
  tail call void @SipHash_Update(ptr noundef nonnull %6, ptr noundef %1, i64 noundef %2) #5
  br label %7

7:                                                ; preds = %3, %5
  ret i32 1
}